; Function Attrs: mustprogress uwtable
define void @_ZN8facebook5velox19registerVectorSerdeESt10unique_ptrINS0_11VectorSerdeESt14default_deleteIS2_EE(ptr nocapture noundef %serdeToRegister) local_unnamed_addr #0 {
entry:
  %0 = load atomic i8, ptr @_ZGVZN8facebook5velox12_GLOBAL__N_118getVectorSerdeImplEvE5serde acquire, align 8
  %guard.uninitialized.i = icmp eq i8 %0, 0
  br i1 %guard.uninitialized.i, label %init.check.i, label %_ZN8facebook5velox12_GLOBAL__N_118getVectorSerdeImplEv.exit, !prof !6

init.check.i:                                     ; preds = %entry
  %1 = tail call i32 @__cxa_guard_acquire(ptr nonnull @_ZGVZN8facebook5velox12_GLOBAL__N_118getVectorSerdeImplEvE5serde) #21
  %tobool.not.i = icmp eq i32 %1, 0
  br i1 %tobool.not.i, label %_ZN8facebook5velox12_GLOBAL__N_118getVectorSerdeImplEv.exit, label %init.i

init.i:                                           ; preds = %init.check.i
  %2 = tail call i32 @__cxa_atexit(ptr nonnull @_ZNSt10unique_ptrIN8facebook5velox11VectorSerdeESt14default_deleteIS2_EED2Ev, ptr nonnull @_ZZN8facebook5velox12_GLOBAL__N_118getVectorSerdeImplEvE5serde, ptr nonnull @__dso_handle) #21
  tail call void @__cxa_guard_release(ptr nonnull @_ZGVZN8facebook5velox12_GLOBAL__N_118getVectorSerdeImplEvE5serde) #21
  br label %_ZN8facebook5velox12_GLOBAL__N_118getVectorSerdeImplEv.exit

_ZN8facebook5velox12_GLOBAL__N_118getVectorSerdeImplEv.exit: ; preds = %entry, %init.check.i, %init.i
  %3 = load ptr, ptr @_ZZN8facebook5velox12_GLOBAL__N_118getVectorSerdeImplEvE5serde, align 8
  %cmp.i.not.i = icmp eq ptr %3, null
  br i1 %cmp.i.not.i, label %if.end, label %if.then

if.then:                                          ; preds = %_ZN8facebook5velox12_GLOBAL__N_118getVectorSerdeImplEv.exit
  tail call void @llvm.trap()
  unreachable

if.end:                                           ; preds = %_ZN8facebook5velox12_GLOBAL__N_118getVectorSerdeImplEv.exit
  %4 = load ptr, ptr %serdeToRegister, align 8
  store ptr null, ptr %serdeToRegister, align 8
  %5 = load ptr, ptr @_ZZN8facebook5velox12_GLOBAL__N_118getVectorSerdeImplEvE5serde, align 8
  store ptr %4, ptr @_ZZN8facebook5velox12_GLOBAL__N_118getVectorSerdeImplEvE5serde, align 8
  %tobool.not.i.i.i.i = icmp eq ptr %5, null
  br i1 %tobool.not.i.i.i.i, label %_ZNSt10unique_ptrIN8facebook5velox11VectorSerdeESt14default_deleteIS2_EEaSEOS5_.exit, label %_ZNKSt14default_deleteIN8facebook5velox11VectorSerdeEEclEPS2_.exit.i.i.i.i

_ZNKSt14default_deleteIN8facebook5velox11VectorSerdeEEclEPS2_.exit.i.i.i.i: ; preds = %if.end
  %vtable.i.i.i.i.i = load ptr, ptr %5, align 8
  %vfn.i.i.i.i.i = getelementptr inbounds i8, ptr %vtable.i.i.i.i.i, i64 8
  %6 = load ptr, ptr %vfn.i.i.i.i.i, align 8
  tail call void %6(ptr noundef nonnull align 8 dereferenceable(8) %5) #21
  br label %_ZNSt10unique_ptrIN8facebook5velox11VectorSerdeESt14default_deleteIS2_EEaSEOS5_.exit

_ZNSt10unique_ptrIN8facebook5velox11VectorSerdeESt14default_deleteIS2_EEaSEOS5_.exit: ; preds = %if.end, %_ZNKSt14default_deleteIN8facebook5velox11VectorSerdeEEclEPS2_.exit.i.i.i.i
  ret void
}